; Function Attrs: nounwind uwtable
define hidden void @zim_RegexIterator_setMode(ptr nocapture noundef readonly %0, ptr nocapture readnone %1) #0 {
  %3 = alloca i64, align 8
  %4 = getelementptr inbounds i8, ptr %0, i64 32
  %5 = getelementptr inbounds i8, ptr %0, i64 44
  %6 = load i32, ptr %5, align 4
  %7 = call i32 (i32, ptr, ...) @zend_parse_parameters(i32 noundef %6, ptr noundef nonnull @.str.10, ptr noundef nonnull %3) #10
  %8 = icmp eq i32 %7, -1
  br i1 %8, label %9, label %12

9:                                                ; preds = %2
  %10 = load ptr, ptr getelementptr inbounds (%struct._zend_executor_globals, ptr @executor_globals, i64 0, i32 50), align 8
  %11 = icmp ne ptr %10, null
  call void @llvm.assume(i1 %11)
  br label %28

12:                                               ; preds = %2
  %13 = load i64, ptr %3, align 8
  %or.cond = icmp ugt i64 %13, 4
  br i1 %or.cond, label %14, label %17

14:                                               ; preds = %12
  call void (i32, ptr, ...) @zend_argument_value_error(i32 noundef 1, ptr noundef nonnull @.str.11) #10
  %15 = load ptr, ptr getelementptr inbounds (%struct._zend_executor_globals, ptr @executor_globals, i64 0, i32 50), align 8
  %16 = icmp ne ptr %15, null
  call void @llvm.assume(i1 %16)
  br label %28

17:                                               ; preds = %12
  %18 = load ptr, ptr %4, align 8
  %19 = getelementptr inbounds i8, ptr %18, i64 -56
  %20 = load i32, ptr %19, align 8
  %21 = icmp eq i32 %20, -1
  br i1 %21, label %22, label %25

22:                                               ; preds = %17
  call void (ptr, ptr, ...) @zend_throw_error(ptr noundef null, ptr noundef nonnull @.str) #10
  %23 = load ptr, ptr getelementptr inbounds (%struct._zend_executor_globals, ptr @executor_globals, i64 0, i32 50), align 8
  %24 = icmp ne ptr %23, null
  call void @llvm.assume(i1 %24)
  br label %28

25:                                               ; preds = %17
  %26 = trunc i64 %13 to i32
  %27 = getelementptr inbounds i8, ptr %18, i64 -16
  store i32 %26, ptr %27, align 8
  br label %28

28:                                               ; preds = %25, %22, %14, %9
  ret void
}